target datalayout = "e-m:e-p270:32:32-p271:32:32-p272:64:64-i64:64-i128:128-f80:128-n8:16:32:64-S128"
target triple = "x86_64-pc-linux-gnu"

%struct.GetByteContext = type { ptr, ptr, ptr }
%struct.AVRational = type { i32, i32 }
%struct.AVCodecContext = type { ptr, i32, i32, ptr, i32, i32, ptr, ptr, ptr, i64, i32, i32, ptr, i32, %struct.AVRational, %struct.AVRational, %struct.AVRational, i32, i32, i32, i32, i32, %struct.AVRational, i32, i32, i32, i32, i32, i32, i32, i32, i32, i32, i32, ptr, ptr, i32, float, float, float, float, float, float, float, float, float, i32, i32, i32, i32, i32, i32, i32, i32, i32, i32, i32, i32, ptr, ptr, ptr, i32, i32, i32, i32, i32, i32, i32, i32, i32, i32, %struct.AVChannelLayout, i32, i32, i32, i32, i32, i32, i32, i32, ptr, i32, i32, i32, float, float, i32, i32, i32, i32, i32, ptr, i64, i64, float, float, i32, i32, ptr, ptr, i32, i32, i32, i32, i32, ptr, ptr, ptr, ptr, i32, i32, [8 x i64], i32, i32, i32, i32, i32, i32, i32, ptr, ptr, i32, i32, i32, i32, i32, i32, i32, i32, i32, i32, ptr, ptr, i32, i32, ptr, ptr, ptr, ptr, i32, i32, i64, i32, i32, i64, ptr, i64, ptr, i32, ptr, i32 }
%struct.AVChannelLayout = type { i32, i32, %union.anon.0, ptr }
%union.anon.0 = type { i64 }
%struct.AVFrame = type { [8 x ptr], [8 x i32], ptr, i32, i32, i32, i32, i32, %struct.AVRational, i64, i64, %struct.AVRational, i32, ptr, i32, i32, [8 x ptr], ptr, i32, ptr, i32, i32, i32, i32, i32, i32, i32, i64, ptr, i32, ptr, ptr, i64, i64, i64, i64, ptr, %struct.AVChannelLayout, i64 }

; Function Attrs: alwaysinline nounwind willreturn memory(none) uwtable
define internal zeroext i16 @av_bswap16(i16 noundef zeroext %0) #5 {
  %2 = alloca i16, align 2
  store i16 %0, ptr %2, align 2, !tbaa !52
  %3 = load i16, ptr %2, align 2, !tbaa !52
  %4 = zext i16 %3 to i32
  %5 = ashr i32 %4, 8
  %6 = load i16, ptr %2, align 2, !tbaa !52
  %7 = zext i16 %6 to i32
  %8 = shl i32 %7, 8
  %9 = or i32 %5, %8
  %10 = trunc i32 %9 to i16
  store i16 %10, ptr %2, align 2, !tbaa !52
  %11 = load i16, ptr %2, align 2, !tbaa !52
  ret i16 %11
}

; Function Attrs: alwaysinline nounwind uwtable
define internal i32 @bytestream_get_byte(ptr noundef %0) #2 {
  %2 = alloca ptr, align 8
  store ptr %0, ptr %2, align 8, !tbaa !70
  %3 = load ptr, ptr %2, align 8, !tbaa !70
  %4 = load ptr, ptr %3, align 8, !tbaa !40
  %5 = getelementptr inbounds i8, ptr %4, i64 1
  store ptr %5, ptr %3, align 8, !tbaa !40
  %6 = load ptr, ptr %2, align 8, !tbaa !70
  %7 = load ptr, ptr %6, align 8, !tbaa !40
  %8 = getelementptr inbounds i8, ptr %7, i64 -1
  %9 = getelementptr inbounds i8, ptr %8, i64 0
  %10 = load i8, ptr %9, align 1, !tbaa !47
  %11 = zext i8 %10 to i32
  ret i32 %11
}

; Function Attrs: alwaysinline nounwind uwtable
define internal i32 @bytestream_get_be16(ptr noundef %0) #2 {
  %2 = alloca ptr, align 8
  store ptr %0, ptr %2, align 8, !tbaa !70
  %3 = load ptr, ptr %2, align 8, !tbaa !70
  %4 = load ptr, ptr %3, align 8, !tbaa !40
  %5 = getelementptr inbounds i8, ptr %4, i64 2
  store ptr %5, ptr %3, align 8, !tbaa !40
  %6 = load ptr, ptr %2, align 8, !tbaa !70
  %7 = load ptr, ptr %6, align 8, !tbaa !40
  %8 = getelementptr inbounds i8, ptr %7, i64 -2
  %9 = load i16, ptr %8, align 1, !tbaa !47
  %10 = call zeroext i16 @av_bswap16(i16 noundef zeroext %9) #8
  %11 = zext i16 %10 to i32
  ret i32 %11
}

; Function Attrs: alwaysinline nounwind uwtable
define internal i32 @bytestream2_get_byteu(ptr noundef %0) #2 {
  %2 = alloca ptr, align 8
  store ptr %0, ptr %2, align 8, !tbaa !43
  %3 = load ptr, ptr %2, align 8, !tbaa !43
  %4 = getelementptr inbounds nuw %struct.GetByteContext, ptr %3, i32 0, i32 0
  %5 = call i32 @bytestream_get_byte(ptr noundef %4)
  ret i32 %5
}

; Function Attrs: alwaysinline nounwind uwtable
define internal i32 @bytestream2_get_be16u(ptr noundef %0) #2 {
  %2 = alloca ptr, align 8
  store ptr %0, ptr %2, align 8, !tbaa !43
  %3 = load ptr, ptr %2, align 8, !tbaa !43
  %4 = getelementptr inbounds nuw %struct.GetByteContext, ptr %3, i32 0, i32 0
  %5 = call i32 @bytestream_get_be16(ptr noundef %4)
  ret i32 %5
}

; Function Attrs: alwaysinline nounwind uwtable
define internal void @bytestream2_skip(ptr noundef %0, i32 noundef %1) #2 {
  %3 = alloca ptr, align 8
  %4 = alloca i32, align 4
  store ptr %0, ptr %3, align 8, !tbaa !43
  store i32 %1, ptr %4, align 4, !tbaa !26
  %5 = load ptr, ptr %3, align 8, !tbaa !43
  %6 = getelementptr inbounds nuw %struct.GetByteContext, ptr %5, i32 0, i32 1
  %7 = load ptr, ptr %6, align 8, !tbaa !46
  %8 = load ptr, ptr %3, align 8, !tbaa !43
  %9 = getelementptr inbounds nuw %struct.GetByteContext, ptr %8, i32 0, i32 0
  %10 = load ptr, ptr %9, align 8, !tbaa !24
  %11 = ptrtoint ptr %7 to i64
  %12 = ptrtoint ptr %10 to i64
  %13 = sub i64 %11, %12
  %14 = load i32, ptr %4, align 4, !tbaa !26
  %15 = zext i32 %14 to i64
  %16 = icmp sgt i64 %13, %15
  br i1 %16, label %17, label %20

17:                                               ; preds = %2
  %18 = load i32, ptr %4, align 4, !tbaa !26
  %19 = zext i32 %18 to i64
  br label %30

20:                                               ; preds = %2
  %21 = load ptr, ptr %3, align 8, !tbaa !43
  %22 = getelementptr inbounds nuw %struct.GetByteContext, ptr %21, i32 0, i32 1
  %23 = load ptr, ptr %22, align 8, !tbaa !46
  %24 = load ptr, ptr %3, align 8, !tbaa !43
  %25 = getelementptr inbounds nuw %struct.GetByteContext, ptr %24, i32 0, i32 0
  %26 = load ptr, ptr %25, align 8, !tbaa !24
  %27 = ptrtoint ptr %23 to i64
  %28 = ptrtoint ptr %26 to i64
  %29 = sub i64 %27, %28
  br label %30

30:                                               ; preds = %20, %17
  %31 = phi i64 [ %19, %17 ], [ %29, %20 ]
  %32 = load ptr, ptr %3, align 8, !tbaa !43
  %33 = getelementptr inbounds nuw %struct.GetByteContext, ptr %32, i32 0, i32 0
  %34 = load ptr, ptr %33, align 8, !tbaa !24
  %35 = getelementptr inbounds i8, ptr %34, i64 %31
  store ptr %35, ptr %33, align 8, !tbaa !24
  ret void
}

; Function Attrs: alwaysinline nounwind uwtable
define internal i32 @bytestream2_get_byte(ptr noundef %0) #2 {
  %2 = alloca i32, align 4
  %3 = alloca ptr, align 8
  store ptr %0, ptr %3, align 8, !tbaa !43
  %4 = load ptr, ptr %3, align 8, !tbaa !43
  %5 = getelementptr inbounds nuw %struct.GetByteContext, ptr %4, i32 0, i32 1
  %6 = load ptr, ptr %5, align 8, !tbaa !46
  %7 = load ptr, ptr %3, align 8, !tbaa !43
  %8 = getelementptr inbounds nuw %struct.GetByteContext, ptr %7, i32 0, i32 0
  %9 = load ptr, ptr %8, align 8, !tbaa !24
  %10 = ptrtoint ptr %6 to i64
  %11 = ptrtoint ptr %9 to i64
  %12 = sub i64 %10, %11
  %13 = icmp slt i64 %12, 1
  br i1 %13, label %14, label %20

14:                                               ; preds = %1
  %15 = load ptr, ptr %3, align 8, !tbaa !43
  %16 = getelementptr inbounds nuw %struct.GetByteContext, ptr %15, i32 0, i32 1
  %17 = load ptr, ptr %16, align 8, !tbaa !46
  %18 = load ptr, ptr %3, align 8, !tbaa !43
  %19 = getelementptr inbounds nuw %struct.GetByteContext, ptr %18, i32 0, i32 0
  store ptr %17, ptr %19, align 8, !tbaa !24
  store i32 0, ptr %2, align 4
  br label %23

20:                                               ; preds = %1
  %21 = load ptr, ptr %3, align 8, !tbaa !43
  %22 = call i32 @bytestream2_get_byteu(ptr noundef %21)
  store i32 %22, ptr %2, align 4
  br label %23

23:                                               ; preds = %20, %14
  %24 = load i32, ptr %2, align 4
  ret i32 %24
}

; Function Attrs: alwaysinline nounwind uwtable
define internal i32 @bytestream2_get_bytes_left(ptr noundef %0) #2 {
  %2 = alloca ptr, align 8
  store ptr %0, ptr %2, align 8, !tbaa !43
  %3 = load ptr, ptr %2, align 8, !tbaa !43
  %4 = getelementptr inbounds nuw %struct.GetByteContext, ptr %3, i32 0, i32 1
  %5 = load ptr, ptr %4, align 8, !tbaa !46
  %6 = load ptr, ptr %2, align 8, !tbaa !43
  %7 = getelementptr inbounds nuw %struct.GetByteContext, ptr %6, i32 0, i32 0
  %8 = load ptr, ptr %7, align 8, !tbaa !24
  %9 = ptrtoint ptr %5 to i64
  %10 = ptrtoint ptr %8 to i64
  %11 = sub i64 %9, %10
  %12 = trunc i64 %11 to i32
  ret i32 %12
}

; Function Attrs: alwaysinline nounwind uwtable
define internal i32 @bytestream2_get_be16(ptr noundef %0) #2 {
  %2 = alloca i32, align 4
  %3 = alloca ptr, align 8
  store ptr %0, ptr %3, align 8, !tbaa !43
  %4 = load ptr, ptr %3, align 8, !tbaa !43
  %5 = getelementptr inbounds nuw %struct.GetByteContext, ptr %4, i32 0, i32 1
  %6 = load ptr, ptr %5, align 8, !tbaa !46
  %7 = load ptr, ptr %3, align 8, !tbaa !43
  %8 = getelementptr inbounds nuw %struct.GetByteContext, ptr %7, i32 0, i32 0
  %9 = load ptr, ptr %8, align 8, !tbaa !24
  %10 = ptrtoint ptr %6 to i64
  %11 = ptrtoint ptr %9 to i64
  %12 = sub i64 %10, %11
  %13 = icmp slt i64 %12, 2
  br i1 %13, label %14, label %20

14:                                               ; preds = %1
  %15 = load ptr, ptr %3, align 8, !tbaa !43
  %16 = getelementptr inbounds nuw %struct.GetByteContext, ptr %15, i32 0, i32 1
  %17 = load ptr, ptr %16, align 8, !tbaa !46
  %18 = load ptr, ptr %3, align 8, !tbaa !43
  %19 = getelementptr inbounds nuw %struct.GetByteContext, ptr %18, i32 0, i32 0
  store ptr %17, ptr %19, align 8, !tbaa !24
  store i32 0, ptr %2, align 4
  br label %23

20:                                               ; preds = %1
  %21 = load ptr, ptr %3, align 8, !tbaa !43
  %22 = call i32 @bytestream2_get_be16u(ptr noundef %21)
  store i32 %22, ptr %2, align 4
  br label %23

23:                                               ; preds = %20, %14
  %24 = load i32, ptr %2, align 4
  ret i32 %24
}

; Function Attrs: nounwind uwtable
define internal i32 @decode_rle16(ptr noundef %0, ptr noundef %1, ptr noundef %2) #0 {
  %4 = alloca i32, align 4
  %5 = alloca ptr, align 8
  %6 = alloca ptr, align 8
  %7 = alloca ptr, align 8
  %8 = alloca i32, align 4
  %9 = alloca ptr, align 8
  %10 = alloca i32, align 4
  %11 = alloca i32, align 4
  %12 = alloca i32, align 4
  %13 = alloca i32, align 4
  %14 = alloca i32, align 4
  %15 = alloca i32, align 4
  %16 = alloca ptr, align 8
  %17 = alloca i32, align 4
  %18 = alloca i32, align 4
  store ptr %0, ptr %5, align 8, !tbaa !4
  store ptr %1, ptr %6, align 8, !tbaa !9
  store ptr %2, ptr %7, align 8, !tbaa !43
  call void @llvm.lifetime.start.p0(i64 4, ptr %8) #6
  %19 = load ptr, ptr %5, align 8, !tbaa !4
  %20 = getelementptr inbounds nuw %struct.AVCodecContext, ptr %19, i32 0, i32 18
  %21 = load i32, ptr %20, align 8, !tbaa !49
  store i32 %21, ptr %8, align 4, !tbaa !26
  call void @llvm.lifetime.start.p0(i64 8, ptr %9) #6
  %22 = load ptr, ptr %6, align 8, !tbaa !9
  %23 = getelementptr inbounds nuw %struct.AVFrame, ptr %22, i32 0, i32 0
  %24 = getelementptr inbounds [8 x ptr], ptr %23, i64 0, i64 0
  %25 = load ptr, ptr %24, align 8, !tbaa !40
  store ptr %25, ptr %9, align 8, !tbaa !40
  call void @llvm.lifetime.start.p0(i64 4, ptr %10) #6
  call void @llvm.lifetime.start.p0(i64 4, ptr %11) #6
  store i32 0, ptr %10, align 4, !tbaa !26
  br label %26

26:                                               ; preds = %122, %3
  %27 = load i32, ptr %10, align 4, !tbaa !26
  %28 = load ptr, ptr %5, align 8, !tbaa !4
  %29 = getelementptr inbounds nuw %struct.AVCodecContext, ptr %28, i32 0, i32 19
  %30 = load i32, ptr %29, align 4, !tbaa !50
  %31 = icmp slt i32 %27, %30
  br i1 %31, label %32, label %125

32:                                               ; preds = %26
  call void @llvm.lifetime.start.p0(i64 4, ptr %12) #6
  call void @llvm.lifetime.start.p0(i64 4, ptr %13) #6
  call void @llvm.lifetime.start.p0(i64 4, ptr %14) #6
  call void @llvm.lifetime.start.p0(i64 4, ptr %15) #6
  call void @llvm.lifetime.start.p0(i64 8, ptr %16) #6
  %33 = load ptr, ptr %9, align 8, !tbaa !40
  store ptr %33, ptr %16, align 8, !tbaa !51
  call void @llvm.lifetime.start.p0(i64 4, ptr %17) #6
  store i32 0, ptr %17, align 4, !tbaa !26
  %34 = load ptr, ptr %7, align 8, !tbaa !43
  %35 = call i32 @bytestream2_get_be16(ptr noundef %34)
  store i32 %35, ptr %13, align 4, !tbaa !26
  store i32 %35, ptr %12, align 4, !tbaa !26
  %36 = load ptr, ptr %7, align 8, !tbaa !43
  %37 = call i32 @bytestream2_get_bytes_left(ptr noundef %36)
  %38 = load i32, ptr %12, align 4, !tbaa !26
  %39 = icmp slt i32 %37, %38
  br i1 %39, label %40, label %41

40:                                               ; preds = %32
  store i32 -1094995529, ptr %4, align 4
  store i32 1, ptr %18, align 4
  br label %119

41:                                               ; preds = %32
  br label %42

42:                                               ; preds = %110, %41
  %43 = load i32, ptr %13, align 4, !tbaa !26
  %44 = icmp sgt i32 %43, 0
  br i1 %44, label %45, label %111

45:                                               ; preds = %42
  %46 = load ptr, ptr %7, align 8, !tbaa !43
  %47 = call i32 @bytestream2_get_byte(ptr noundef %46)
  store i32 %47, ptr %14, align 4, !tbaa !26
  %48 = load i32, ptr %14, align 4, !tbaa !26
  %49 = and i32 %48, 128
  %50 = icmp ne i32 %49, 0
  br i1 %50, label %51, label %78

51:                                               ; preds = %45
  %52 = load ptr, ptr %7, align 8, !tbaa !43
  %53 = call i32 @bytestream2_get_be16(ptr noundef %52)
  store i32 %53, ptr %15, align 4, !tbaa !26
  store i32 0, ptr %11, align 4, !tbaa !26
  br label %54

54:                                               ; preds = %72, %51
  %55 = load i32, ptr %11, align 4, !tbaa !26
  %56 = load i32, ptr %14, align 4, !tbaa !26
  %57 = sub nsw i32 257, %56
  %58 = icmp slt i32 %55, %57
  br i1 %58, label %59, label %75

59:                                               ; preds = %54
  %60 = load i32, ptr %17, align 4, !tbaa !26
  %61 = load i32, ptr %8, align 4, !tbaa !26
  %62 = icmp slt i32 %60, %61
  br i1 %62, label %63, label %71

63:                                               ; preds = %59
  %64 = load i32, ptr %15, align 4, !tbaa !26
  %65 = trunc i32 %64 to i16
  %66 = load ptr, ptr %16, align 8, !tbaa !51
  %67 = load i32, ptr %17, align 4, !tbaa !26
  %68 = add nsw i32 %67, 1
  store i32 %68, ptr %17, align 4, !tbaa !26
  %69 = sext i32 %67 to i64
  %70 = getelementptr inbounds i16, ptr %66, i64 %69
  store i16 %65, ptr %70, align 2, !tbaa !52
  br label %71

71:                                               ; preds = %63, %59
  br label %72

72:                                               ; preds = %71
  %73 = load i32, ptr %11, align 4, !tbaa !26
  %74 = add nsw i32 %73, 1
  store i32 %74, ptr %11, align 4, !tbaa !26
  br label %54, !llvm.loop !54

75:                                               ; preds = %54
  %76 = load i32, ptr %13, align 4, !tbaa !26
  %77 = sub nsw i32 %76, 3
  store i32 %77, ptr %13, align 4, !tbaa !26
  br label %110

78:                                               ; preds = %45
  store i32 0, ptr %11, align 4, !tbaa !26
  br label %79

79:                                               ; preds = %100, %78
  %80 = load i32, ptr %11, align 4, !tbaa !26
  %81 = load i32, ptr %14, align 4, !tbaa !26
  %82 = add nsw i32 %81, 1
  %83 = icmp slt i32 %80, %82
  br i1 %83, label %84, label %103

84:                                               ; preds = %79
  %85 = load i32, ptr %17, align 4, !tbaa !26
  %86 = load i32, ptr %8, align 4, !tbaa !26
  %87 = icmp slt i32 %85, %86
  br i1 %87, label %88, label %97

88:                                               ; preds = %84
  %89 = load ptr, ptr %7, align 8, !tbaa !43
  %90 = call i32 @bytestream2_get_be16(ptr noundef %89)
  %91 = trunc i32 %90 to i16
  %92 = load ptr, ptr %16, align 8, !tbaa !51
  %93 = load i32, ptr %17, align 4, !tbaa !26
  %94 = add nsw i32 %93, 1
  store i32 %94, ptr %17, align 4, !tbaa !26
  %95 = sext i32 %93 to i64
  %96 = getelementptr inbounds i16, ptr %92, i64 %95
  store i16 %91, ptr %96, align 2, !tbaa !52
  br label %99

97:                                               ; preds = %84
  %98 = load ptr, ptr %7, align 8, !tbaa !43
  call void @bytestream2_skip(ptr noundef %98, i32 noundef 2)
  br label %99

99:                                               ; preds = %97, %88
  br label %100

100:                                              ; preds = %99
  %101 = load i32, ptr %11, align 4, !tbaa !26
  %102 = add nsw i32 %101, 1
  store i32 %102, ptr %11, align 4, !tbaa !26
  br label %79, !llvm.loop !55

103:                                              ; preds = %79
  %104 = load i32, ptr %14, align 4, !tbaa !26
  %105 = add nsw i32 %104, 1
  %106 = mul nsw i32 %105, 2
  %107 = add nsw i32 1, %106
  %108 = load i32, ptr %13, align 4, !tbaa !26
  %109 = sub nsw i32 %108, %107
  store i32 %109, ptr %13, align 4, !tbaa !26
  br label %110

110:                                              ; preds = %103, %75
  br label %42, !llvm.loop !56

111:                                              ; preds = %42
  %112 = load ptr, ptr %6, align 8, !tbaa !9
  %113 = getelementptr inbounds nuw %struct.AVFrame, ptr %112, i32 0, i32 1
  %114 = getelementptr inbounds [8 x i32], ptr %113, i64 0, i64 0
  %115 = load i32, ptr %114, align 8, !tbaa !26
  %116 = load ptr, ptr %9, align 8, !tbaa !40
  %117 = sext i32 %115 to i64
  %118 = getelementptr inbounds i8, ptr %116, i64 %117
  store ptr %118, ptr %9, align 8, !tbaa !40
  store i32 0, ptr %18, align 4
  br label %119

119:                                              ; preds = %111, %40
  call void @llvm.lifetime.end.p0(i64 4, ptr %17) #6
  call void @llvm.lifetime.end.p0(i64 8, ptr %16) #6
  call void @llvm.lifetime.end.p0(i64 4, ptr %15) #6
  call void @llvm.lifetime.end.p0(i64 4, ptr %14) #6
  call void @llvm.lifetime.end.p0(i64 4, ptr %13) #6
  call void @llvm.lifetime.end.p0(i64 4, ptr %12) #6
  %120 = load i32, ptr %18, align 4
  switch i32 %120, label %126 [
    i32 0, label %121
  ]

121:                                              ; preds = %119
  br label %122

122:                                              ; preds = %121
  %123 = load i32, ptr %10, align 4, !tbaa !26
  %124 = add nsw i32 %123, 1
  store i32 %124, ptr %10, align 4, !tbaa !26
  br label %26, !llvm.loop !57

125:                                              ; preds = %26
  store i32 0, ptr %4, align 4
  store i32 1, ptr %18, align 4
  br label %126

126:                                              ; preds = %125, %119
  call void @llvm.lifetime.end.p0(i64 4, ptr %11) #6
  call void @llvm.lifetime.end.p0(i64 4, ptr %10) #6
  call void @llvm.lifetime.end.p0(i64 8, ptr %9) #6
  call void @llvm.lifetime.end.p0(i64 4, ptr %8) #6
  %127 = load i32, ptr %4, align 4
  ret i32 %127
}