; Function Attrs: nofree norecurse nosync nounwind memory(readwrite, inaccessiblemem: none) uwtable
define internal fastcc range(i32 -1094995529, 1) i32 @decode_rle16(ptr noundef readonly captures(none) %0, ptr noundef readonly captures(none) %1, ptr noundef nonnull captures(none) %2) unnamed_addr #3 {
  %4 = getelementptr inbounds nuw i8, ptr %0, i64 112
  %5 = load i32, ptr %4, align 8, !tbaa !39
  %6 = getelementptr inbounds nuw i8, ptr %0, i64 116
  %7 = load i32, ptr %6, align 4, !tbaa !40
  %8 = icmp sgt i32 %7, 0
  br i1 %8, label %.lr.ph68, label %.thread

.lr.ph68:                                         ; preds = %3
  %9 = load ptr, ptr %1, align 8, !tbaa !20
  %10 = getelementptr inbounds nuw i8, ptr %2, i64 8
  %11 = load ptr, ptr %10, align 8, !tbaa !18
  %12 = ptrtoint ptr %11 to i64
  %13 = getelementptr inbounds nuw i8, ptr %1, i64 64
  %.promoted70 = load ptr, ptr %2, align 8, !tbaa !20
  br label %14

14:                                               ; preds = %.lr.ph68, %._crit_edge
  %.promoted72 = phi ptr [ %.promoted70, %.lr.ph68 ], [ %.promoted73, %._crit_edge ]
  %.04066 = phi ptr [ %9, %.lr.ph68 ], [ %80, %._crit_edge ]
  %.04265 = phi i32 [ 0, %.lr.ph68 ], [ %81, %._crit_edge ]
  %15 = ptrtoint ptr %.promoted72 to i64
  %16 = sub i64 %12, %15
  %17 = icmp slt i64 %16, 2
  br i1 %17, label %.preheader58.thread, label %bytestream2_get_be16.exit54

bytestream2_get_be16.exit54:                      ; preds = %14
  %18 = getelementptr inbounds nuw i8, ptr %.promoted72, i64 2
  store ptr %18, ptr %2, align 8, !tbaa !20
  %19 = load i16, ptr %.promoted72, align 1, !tbaa !19
  %20 = tail call i16 @llvm.bswap.i16(i16 %19)
  %21 = zext i16 %20 to i32
  %.pre = ptrtoint ptr %18 to i64
  %22 = sub i64 %12, %.pre
  %23 = trunc i64 %22 to i32
  %.not50 = icmp sgt i32 %21, %23
  br i1 %.not50, label %.thread, label %.preheader58

.preheader58.thread:                              ; preds = %14
  store ptr %11, ptr %2, align 8, !tbaa !21
  br label %._crit_edge

.preheader58:                                     ; preds = %bytestream2_get_be16.exit54
  %.not76 = icmp eq i16 %19, 0
  br i1 %.not76, label %._crit_edge, label %.lr.ph

.lr.ph:                                           ; preds = %.preheader58, %76
  %24 = phi ptr [ %.promoted74, %76 ], [ %18, %.preheader58 ]
  %.03664 = phi i32 [ %.3, %76 ], [ 0, %.preheader58 ]
  %.04363 = phi i32 [ %.144, %76 ], [ %21, %.preheader58 ]
  %25 = ptrtoint ptr %24 to i64
  %26 = sub i64 %12, %25
  %27 = icmp slt i64 %26, 1
  br i1 %27, label %.preheader.preheader, label %bytestream2_get_byte.exit

bytestream2_get_byte.exit:                        ; preds = %.lr.ph
  %28 = getelementptr inbounds nuw i8, ptr %24, i64 1
  store ptr %28, ptr %2, align 8, !tbaa !20
  %29 = load i8, ptr %24, align 1, !tbaa !19
  %30 = zext i8 %29 to i32
  %.not = icmp sgt i8 %29, -1
  br i1 %.not, label %.preheader.preheader, label %32

.preheader.preheader:                             ; preds = %.lr.ph, %bytestream2_get_byte.exit
  %.0.i5590 = phi i32 [ %30, %bytestream2_get_byte.exit ], [ 0, %.lr.ph ]
  %31 = phi ptr [ %28, %bytestream2_get_byte.exit ], [ %11, %.lr.ph ]
  br label %.preheader

32:                                               ; preds = %bytestream2_get_byte.exit
  %33 = ptrtoint ptr %28 to i64
  %34 = sub i64 %12, %33
  %35 = icmp slt i64 %34, 2
  br i1 %35, label %36, label %37

36:                                               ; preds = %32
  store ptr %11, ptr %2, align 8, !tbaa !21
  br label %bytestream2_get_be16.exit52

37:                                               ; preds = %32
  %38 = getelementptr inbounds nuw i8, ptr %24, i64 3
  store ptr %38, ptr %2, align 8, !tbaa !20
  %39 = load i16, ptr %28, align 1, !tbaa !19
  %40 = tail call i16 @llvm.bswap.i16(i16 %39)
  br label %bytestream2_get_be16.exit52

bytestream2_get_be16.exit52:                      ; preds = %36, %37
  %41 = phi ptr [ %11, %36 ], [ %38, %37 ]
  %.0.i51 = phi i16 [ 0, %36 ], [ %40, %37 ]
  %42 = sub nuw nsw i32 257, %30
  br label %43

43:                                               ; preds = %bytestream2_get_be16.exit52, %49
  %.160 = phi i32 [ %.03664, %bytestream2_get_be16.exit52 ], [ %.2, %49 ]
  %.04559 = phi i32 [ 0, %bytestream2_get_be16.exit52 ], [ %50, %49 ]
  %44 = icmp slt i32 %.160, %5
  br i1 %44, label %45, label %49

45:                                               ; preds = %43
  %46 = add nsw i32 %.160, 1
  %47 = sext i32 %.160 to i64
  %48 = getelementptr inbounds i16, ptr %.04066, i64 %47
  store i16 %.0.i51, ptr %48, align 2, !tbaa !41
  br label %49

49:                                               ; preds = %43, %45
  %.2 = phi i32 [ %46, %45 ], [ %.160, %43 ]
  %50 = add nuw nsw i32 %.04559, 1
  %exitcond.not = icmp eq i32 %50, %42
  br i1 %exitcond.not, label %51, label %43, !llvm.loop !43

51:                                               ; preds = %49
  %52 = add nsw i32 %.04363, -3
  br label %76

.preheader:                                       ; preds = %.preheader.preheader, %70
  %53 = phi ptr [ %71, %70 ], [ %31, %.preheader.preheader ]
  %.462 = phi i32 [ %.5, %70 ], [ %.03664, %.preheader.preheader ]
  %.14661 = phi i32 [ %72, %70 ], [ 0, %.preheader.preheader ]
  %54 = icmp slt i32 %.462, %5
  %55 = ptrtoint ptr %53 to i64
  %56 = sub i64 %12, %55
  br i1 %54, label %57, label %68

57:                                               ; preds = %.preheader
  %58 = icmp slt i64 %56, 2
  br i1 %58, label %59, label %60

59:                                               ; preds = %57
  store ptr %11, ptr %2, align 8, !tbaa !21
  br label %bytestream2_get_be16.exit

60:                                               ; preds = %57
  %61 = getelementptr inbounds nuw i8, ptr %53, i64 2
  store ptr %61, ptr %2, align 8, !tbaa !20
  %62 = load i16, ptr %53, align 1, !tbaa !19
  %63 = tail call i16 @llvm.bswap.i16(i16 %62)
  br label %bytestream2_get_be16.exit

bytestream2_get_be16.exit:                        ; preds = %59, %60
  %64 = phi ptr [ %11, %59 ], [ %61, %60 ]
  %.0.i = phi i16 [ 0, %59 ], [ %63, %60 ]
  %65 = add nsw i32 %.462, 1
  %66 = sext i32 %.462 to i64
  %67 = getelementptr inbounds i16, ptr %.04066, i64 %66
  store i16 %.0.i, ptr %67, align 2, !tbaa !41
  br label %70

68:                                               ; preds = %.preheader
  %..i = tail call i64 @llvm.smin.i64(i64 %56, i64 2)
  %69 = getelementptr inbounds i8, ptr %53, i64 %..i
  store ptr %69, ptr %2, align 8, !tbaa !21
  br label %70

70:                                               ; preds = %bytestream2_get_be16.exit, %68
  %71 = phi ptr [ %64, %bytestream2_get_be16.exit ], [ %69, %68 ]
  %.5 = phi i32 [ %65, %bytestream2_get_be16.exit ], [ %.462, %68 ]
  %72 = add nuw nsw i32 %.14661, 1
  %exitcond77.not = icmp eq i32 %.14661, %.0.i5590
  br i1 %exitcond77.not, label %73, label %.preheader, !llvm.loop !44

73:                                               ; preds = %70
  %.neg57 = add nsw i32 %.04363, -3
  %74 = shl nuw nsw i32 %.0.i5590, 1
  %75 = sub i32 %.neg57, %74
  br label %76

76:                                               ; preds = %73, %51
  %.promoted74 = phi ptr [ %41, %51 ], [ %71, %73 ]
  %.144 = phi i32 [ %52, %51 ], [ %75, %73 ]
  %.3 = phi i32 [ %.2, %51 ], [ %.5, %73 ]
  %77 = icmp sgt i32 %.144, 0
  br i1 %77, label %.lr.ph, label %._crit_edge, !llvm.loop !45

._crit_edge:                                      ; preds = %76, %.preheader58.thread, %.preheader58
  %.promoted73 = phi ptr [ %18, %.preheader58 ], [ %11, %.preheader58.thread ], [ %.promoted74, %76 ]
  %78 = load i32, ptr %13, align 8, !tbaa !36
  %79 = sext i32 %78 to i64
  %80 = getelementptr inbounds i8, ptr %.04066, i64 %79
  %81 = add nuw nsw i32 %.04265, 1
  %exitcond78.not = icmp eq i32 %81, %7
  br i1 %exitcond78.not, label %.thread, label %14, !llvm.loop !46

.thread:                                          ; preds = %._crit_edge, %bytestream2_get_be16.exit54, %3
  %.239 = phi i32 [ 0, %3 ], [ -1094995529, %bytestream2_get_be16.exit54 ], [ 0, %._crit_edge ]
  ret i32 %.239
}